; Function Attrs: nounwind uwtable
define dso_local void @tuplesort_get_stats(ptr noundef captures(none) %0, ptr noundef writeonly captures(none) initializes((0, 16)) %1) local_unnamed_addr #0 {
  %3 = getelementptr inbounds nuw i8, ptr %0, i64 176
  %4 = load ptr, ptr %3, align 8
  %.not.i = icmp ne ptr %4, null
  br i1 %.not.i, label %11, label %5

5:                                                ; preds = %2
  %6 = getelementptr inbounds nuw i8, ptr %0, i64 144
  %7 = load i64, ptr %6, align 8
  %8 = getelementptr inbounds nuw i8, ptr %0, i64 136
  %9 = load i64, ptr %8, align 8
  %10 = sub i64 %7, %9
  %.phi.trans.insert.i = getelementptr inbounds nuw i8, ptr %0, i64 168
  %.pre.i = load i8, ptr %.phi.trans.insert.i, align 8, !range !4
  br label %17

11:                                               ; preds = %2
  %12 = tail call i64 @LogicalTapeSetBlocks(ptr noundef nonnull %4) #13
  %13 = shl i64 %12, 13
  %14 = getelementptr inbounds nuw i8, ptr %0, i64 168
  %15 = load i8, ptr %14, align 8, !range !4, !noundef !5
  %16 = trunc nuw i8 %15 to i1
  br i1 %16, label %17, label %._crit_edge.i

17:                                               ; preds = %11, %5
  %18 = phi i8 [ 1, %11 ], [ %.pre.i, %5 ]
  %.01518.i = phi i64 [ %13, %11 ], [ %10, %5 ]
  %19 = zext i1 %.not.i to i8
  %20 = icmp eq i8 %18, %19
  br i1 %20, label %21, label %tuplesort_updatemax.exit

21:                                               ; preds = %17
  %22 = getelementptr inbounds nuw i8, ptr %0, i64 160
  %23 = load i64, ptr %22, align 8
  %24 = icmp sgt i64 %.01518.i, %23
  br i1 %24, label %._crit_edge.i, label %tuplesort_updatemax.exit

._crit_edge.i:                                    ; preds = %21, %11
  %.pre-phi.i = phi i8 [ %18, %21 ], [ 1, %11 ]
  %.01520.i = phi i64 [ %.01518.i, %21 ], [ %13, %11 ]
  %25 = getelementptr inbounds nuw i8, ptr %0, i64 160
  store i64 %.01520.i, ptr %25, align 8
  %26 = getelementptr inbounds nuw i8, ptr %0, i64 168
  store i8 %.pre-phi.i, ptr %26, align 8
  %27 = getelementptr inbounds nuw i8, ptr %0, i64 112
  %28 = load i32, ptr %27, align 8
  %29 = getelementptr inbounds nuw i8, ptr %0, i64 172
  store i32 %28, ptr %29, align 4
  br label %tuplesort_updatemax.exit

tuplesort_updatemax.exit:                         ; preds = %17, %21, %._crit_edge.i
  %30 = phi i8 [ %18, %17 ], [ %18, %21 ], [ %.pre-phi.i, %._crit_edge.i ]
  %31 = and i8 %30, 1
  %32 = xor i8 %31, 1
  %spec.select = zext nneg i8 %32 to i32
  %33 = getelementptr inbounds nuw i8, ptr %1, i64 4
  store i32 %spec.select, ptr %33, align 4
  %34 = getelementptr inbounds nuw i8, ptr %0, i64 160
  %35 = load i64, ptr %34, align 8
  %36 = add i64 %35, 1023
  %37 = sdiv i64 %36, 1024
  %38 = getelementptr inbounds nuw i8, ptr %1, i64 8
  store i64 %37, ptr %38, align 8
  %39 = getelementptr inbounds nuw i8, ptr %0, i64 172
  %40 = load i32, ptr %39, align 4
  switch i32 %40, label %46 [
    i32 3, label %41
    i32 4, label %47
    i32 5, label %45
  ]

41:                                               ; preds = %tuplesort_updatemax.exit
  %42 = getelementptr inbounds nuw i8, ptr %0, i64 117
  %43 = load i8, ptr %42, align 1, !range !4, !noundef !5
  %44 = trunc nuw i8 %43 to i1
  %. = select i1 %44, i32 1, i32 2
  br label %47

45:                                               ; preds = %tuplesort_updatemax.exit
  br label %47

46:                                               ; preds = %tuplesort_updatemax.exit
  br label %47

47:                                               ; preds = %tuplesort_updatemax.exit, %41, %46, %45
  %.sink = phi i32 [ 0, %46 ], [ 8, %45 ], [ %., %41 ], [ %40, %tuplesort_updatemax.exit ]
  store i32 %.sink, ptr %1, align 8
  ret void
}